target datalayout = "e-m:e-p270:32:32-p271:32:32-p272:64:64-i64:64-i128:128-f80:128-n8:16:32:64-S128"
target triple = "x86_64-pc-linux-gnu"

@.str.8 = private unnamed_addr constant [8 x i8] c"destroy\00", align 1
@.str.9 = private unnamed_addr constant [22 x i8] c"pthread_mutex_destroy\00", align 1

; Function Attrs: nounwind sspstrong uwtable
define internal void @mutex_debug(ptr noundef %0, ptr noundef %1) #0 {
  %3 = alloca ptr, align 8
  %4 = alloca ptr, align 8
  store ptr %0, ptr %3, align 8, !tbaa !17
  store ptr %1, ptr %4, align 8, !tbaa !14
  ret void
}

; Function Attrs: nounwind sspstrong uwtable
define dso_local void @rb_native_mutex_destroy(ptr noundef %0) #0 {
  %2 = alloca ptr, align 8
  %3 = alloca i32, align 4
  store ptr %0, ptr %2, align 8, !tbaa !14
  call void @llvm.lifetime.start.p0(i64 4, ptr %3) #16
  %4 = load ptr, ptr %2, align 8, !tbaa !14
  %5 = call i32 @pthread_mutex_destroy(ptr noundef %4) #16
  store i32 %5, ptr %3, align 4, !tbaa !15
  %6 = load ptr, ptr %2, align 8, !tbaa !14
  call void @mutex_debug(ptr noundef @.str.8, ptr noundef %6)
  %7 = load i32, ptr %3, align 4, !tbaa !15
  %8 = icmp ne i32 %7, 0
  br i1 %8, label %9, label %11

9:                                                ; preds = %1
  %10 = load i32, ptr %3, align 4, !tbaa !15
  call void @rb_bug_errno(ptr noundef @.str.9, i32 noundef %10) #35
  unreachable

11:                                               ; preds = %1
  call void @llvm.lifetime.end.p0(i64 4, ptr %3) #16
  ret void
}

; Function Attrs: nounwind sspstrong uwtable
define dso_local void @rb_nativethread_lock_destroy(ptr noundef %0) #0 {
  %2 = alloca ptr, align 8
  store ptr %0, ptr %2, align 8, !tbaa !14
  %3 = load ptr, ptr %2, align 8, !tbaa !14
  call void @rb_native_mutex_destroy(ptr noundef %3)
  ret void
}