; Function Attrs: nounwind sspstrong uwtable
define dso_local void @rb_nativethread_lock_destroy(ptr noundef %0) local_unnamed_addr #0 {
  %2 = tail call i32 @pthread_mutex_destroy(ptr noundef %0) #17
  %.not.i = icmp eq i32 %2, 0
  br i1 %.not.i, label %rb_native_mutex_destroy.exit, label %3

3:                                                ; preds = %1
  tail call void @rb_bug_errno(ptr noundef nonnull @.str.9, i32 noundef %2) #38
  unreachable

rb_native_mutex_destroy.exit:                     ; preds = %1
  ret void
}